; Function Attrs: mustprogress nounwind uwtable
define void @_ZN11QhullPluginD1Ev(ptr noundef nonnull align 8 dereferenceable(80) %0) unnamed_addr #4 align 2 personality ptr @__gxx_personality_v0 {
  %2 = getelementptr inbounds i8, ptr %0, i64 16
  %3 = load ptr, ptr getelementptr inbounds ([7 x ptr], ptr @_ZTT11QhullPlugin, i64 0, i64 1), align 8
  store ptr %3, ptr %2, align 8
  %4 = load ptr, ptr getelementptr inbounds ([7 x ptr], ptr @_ZTT11QhullPlugin, i64 0, i64 2), align 8
  %5 = getelementptr i8, ptr %3, i64 -24
  %6 = load i64, ptr %5, align 8
  %7 = getelementptr inbounds i8, ptr %2, i64 %6
  store ptr %4, ptr %7, align 8
  %8 = load ptr, ptr getelementptr inbounds ([7 x ptr], ptr @_ZTT11QhullPlugin, i64 0, i64 3), align 8
  %9 = load ptr, ptr %2, align 8
  %10 = getelementptr i8, ptr %9, i64 -32
  %11 = load i64, ptr %10, align 8
  %12 = getelementptr inbounds i8, ptr %2, i64 %11
  store ptr %8, ptr %12, align 8
  %13 = getelementptr inbounds i8, ptr %0, i64 56
  %14 = load ptr, ptr %13, align 8
  %.not8.i.i.i.i.i = icmp eq ptr %14, %13
  br i1 %.not8.i.i.i.i.i, label %_ZNSt7__cxx114listIiSaIiEED2Ev.exit.i.i, label %.lr.ph.i.i.i.i.i

.lr.ph.i.i.i.i.i:                                 ; preds = %1, %.lr.ph.i.i.i.i.i
  %.09.i.i.i.i.i = phi ptr [ %15, %.lr.ph.i.i.i.i.i ], [ %14, %1 ]
  %15 = load ptr, ptr %.09.i.i.i.i.i, align 8
  tail call void @_ZdlPv(ptr noundef %.09.i.i.i.i.i) #23
  %.not.i.i.i.i.i = icmp eq ptr %15, %13
  br i1 %.not.i.i.i.i.i, label %_ZNSt7__cxx114listIiSaIiEED2Ev.exit.i.i, label %.lr.ph.i.i.i.i.i, !llvm.loop !12

_ZNSt7__cxx114listIiSaIiEED2Ev.exit.i.i:          ; preds = %.lr.ph.i.i.i.i.i, %1
  %16 = getelementptr inbounds i8, ptr %0, i64 32
  %17 = load ptr, ptr %16, align 8
  %.not8.i.i.i2.i.i = icmp eq ptr %17, %16
  br i1 %.not8.i.i.i2.i.i, label %_ZN11QhullPluginD2Ev.exit, label %.lr.ph.i.i.i3.i.i

.lr.ph.i.i.i3.i.i:                                ; preds = %_ZNSt7__cxx114listIiSaIiEED2Ev.exit.i.i, %.lr.ph.i.i.i3.i.i
  %.09.i.i.i4.i.i = phi ptr [ %18, %.lr.ph.i.i.i3.i.i ], [ %17, %_ZNSt7__cxx114listIiSaIiEED2Ev.exit.i.i ]
  %18 = load ptr, ptr %.09.i.i.i4.i.i, align 8
  tail call void @_ZdlPv(ptr noundef %.09.i.i.i4.i.i) #23
  %.not.i.i.i5.i.i = icmp eq ptr %18, %16
  br i1 %.not.i.i.i5.i.i, label %_ZN11QhullPluginD2Ev.exit, label %.lr.ph.i.i.i3.i.i, !llvm.loop !13

_ZN11QhullPluginD2Ev.exit:                        ; preds = %.lr.ph.i.i.i3.i.i, %_ZNSt7__cxx114listIiSaIiEED2Ev.exit.i.i
  tail call void @_ZN7QObjectD2Ev(ptr noundef nonnull align 8 dereferenceable(16) %0) #24
  %19 = getelementptr inbounds i8, ptr %0, i64 80
  store ptr getelementptr inbounds ({ [7 x ptr] }, ptr @_ZTV13MeshLabPlugin, i64 0, i32 0, i64 2), ptr %19, align 8
  %20 = getelementptr inbounds i8, ptr %0, i64 96
  tail call void @_ZN9QFileInfoD1Ev(ptr noundef nonnull align 8 dereferenceable(8) %20) #24
  ret void
}